; Function Attrs: nounwind uwtable
define ptr @l___private_Lake_Build_Common_0__Lake_mkLinkObjArgs(ptr noundef readonly captures(none) %0, ptr noundef readonly captures(none) %1) local_unnamed_addr #0 {
  %3 = getelementptr i8, ptr %0, i64 8
  %.val14 = load i64, ptr %3, align 8, !tbaa !13
  %4 = load ptr, ptr @l_Lake_platformTrace___closed__3, align 8, !tbaa !9
  %.not25.i.not = icmp eq i64 %.val14, 0
  br i1 %.not25.i.not, label %l_Array_forIn_x27Unsafe_loop___at___private_Lake_Build_Common_0__Lake_mkLinkObjArgs___spec__1.exit, label %.lr.ph.i

.lr.ph.i:                                         ; preds = %2
  %5 = getelementptr inbounds nuw i8, ptr %0, i64 24
  br label %6

6:                                                ; preds = %17, %.lr.ph.i
  %.01327.i = phi i64 [ 0, %.lr.ph.i ], [ %19, %17 ]
  %.01526.i = phi ptr [ %4, %.lr.ph.i ], [ %18, %17 ]
  %7 = getelementptr inbounds nuw [0 x ptr], ptr %5, i64 0, i64 %.01327.i
  %8 = load ptr, ptr %7, align 8, !tbaa !9
  %9 = ptrtoint ptr %8 to i64
  %10 = and i64 %9, 1
  %.not.i.i = icmp eq i64 %10, 0
  br i1 %.not.i.i, label %11, label %17

11:                                               ; preds = %6
  %.val.i.i.i = load i32, ptr %8, align 4, !tbaa !4
  %12 = icmp sgt i32 %.val.i.i.i, 0
  br i1 %12, label %13, label %15, !prof !12

13:                                               ; preds = %11
  %14 = add nuw i32 %.val.i.i.i, 1
  store i32 %14, ptr %8, align 4, !tbaa !4
  br label %17

15:                                               ; preds = %11
  %.not.i.i.i = icmp eq i32 %.val.i.i.i, 0
  br i1 %.not.i.i.i, label %17, label %16

16:                                               ; preds = %15
  tail call void @lean_inc_ref_cold(ptr noundef nonnull %8) #5
  br label %17

17:                                               ; preds = %16, %15, %13, %6
  %18 = tail call ptr @lean_array_push(ptr noundef %.01526.i, ptr noundef %8) #5
  %19 = add nuw i64 %.01327.i, 1
  %exitcond.not.i = icmp eq i64 %19, %.val14
  br i1 %exitcond.not.i, label %l_Array_forIn_x27Unsafe_loop___at___private_Lake_Build_Common_0__Lake_mkLinkObjArgs___spec__1.exit, label %6

l_Array_forIn_x27Unsafe_loop___at___private_Lake_Build_Common_0__Lake_mkLinkObjArgs___spec__1.exit: ; preds = %17, %2
  %.015.lcssa.i = phi ptr [ %4, %2 ], [ %18, %17 ]
  %20 = getelementptr i8, ptr %1, i64 8
  %.val = load i64, ptr %20, align 8, !tbaa !13
  %21 = tail call ptr @l_Array_forIn_x27Unsafe_loop___at___private_Lake_Build_Common_0__Lake_mkLinkObjArgs___spec__2(ptr poison, ptr nonnull poison, ptr noundef %1, i64 noundef %.val, i64 noundef 0, ptr noundef %.015.lcssa.i)
  ret ptr %21
}